; Function Attrs: nounwind uwtable
define ptr @l_Option_bindM___at_Lean_Server_FileWorker_getInteractiveTermGoal___spec__1(ptr noundef %0, ptr noundef %1, ptr noundef %2, ptr noundef %3) #0 {
  %5 = ptrtoint ptr %1 to i64
  %6 = and i64 %5, 1
  %.not.i23 = icmp eq i64 %6, 0
  br i1 %.not.i23, label %10, label %7

7:                                                ; preds = %4
  %8 = lshr i64 %5, 1
  %9 = trunc i64 %8 to i32
  br label %lean_obj_tag.exit

10:                                               ; preds = %4
  %11 = getelementptr i8, ptr %1, i64 4
  %.val.i = load i32, ptr %11, align 4
  %12 = lshr i32 %.val.i, 24
  br label %lean_obj_tag.exit

lean_obj_tag.exit:                                ; preds = %7, %10
  %.0.i = phi i32 [ %9, %7 ], [ %12, %10 ]
  %13 = icmp eq i32 %.0.i, 0
  br i1 %13, label %14, label %39

14:                                               ; preds = %lean_obj_tag.exit
  %15 = ptrtoint ptr %2 to i64
  %16 = and i64 %15, 1
  %.not27 = icmp eq i64 %16, 0
  br i1 %.not27, label %17, label %lean_dec.exit18

17:                                               ; preds = %14
  %18 = load i32, ptr %2, align 4, !tbaa !4
  %19 = icmp sgt i32 %18, 1
  br i1 %19, label %20, label %22, !prof !9

20:                                               ; preds = %17
  %21 = add nsw i32 %18, -1
  store i32 %21, ptr %2, align 4, !tbaa !4
  br label %lean_dec.exit18

22:                                               ; preds = %17
  %.not.i = icmp eq i32 %18, 0
  br i1 %.not.i, label %lean_dec.exit18, label %23

23:                                               ; preds = %22
  tail call void @lean_dec_ref_cold(ptr noundef nonnull %2) #8
  br label %lean_dec.exit18

lean_dec.exit18:                                  ; preds = %23, %22, %20, %14
  %24 = ptrtoint ptr %0 to i64
  %25 = and i64 %24, 1
  %.not28 = icmp eq i64 %25, 0
  br i1 %.not28, label %26, label %lean_dec.exit17

26:                                               ; preds = %lean_dec.exit18
  %27 = load i32, ptr %0, align 4, !tbaa !4
  %28 = icmp sgt i32 %27, 1
  br i1 %28, label %29, label %31, !prof !9

29:                                               ; preds = %26
  %30 = add nsw i32 %27, -1
  store i32 %30, ptr %0, align 4, !tbaa !4
  br label %lean_dec.exit17

31:                                               ; preds = %26
  %.not.i19 = icmp eq i32 %27, 0
  br i1 %.not.i19, label %lean_dec.exit17, label %32

32:                                               ; preds = %31
  tail call void @lean_dec_ref_cold(ptr noundef nonnull %0) #8
  br label %lean_dec.exit17

lean_dec.exit17:                                  ; preds = %32, %31, %29, %lean_dec.exit18
  tail call void @lean_inc_heartbeat() #8
  %33 = tail call noalias ptr @mi_malloc_small(i64 noundef 24) #8
  %34 = icmp eq ptr %33, null
  br i1 %34, label %35, label %lean_alloc_ctor.exit

35:                                               ; preds = %lean_dec.exit17
  tail call void @lean_internal_panic_out_of_memory() #9
  unreachable

lean_alloc_ctor.exit:                             ; preds = %lean_dec.exit17
  %36 = getelementptr inbounds nuw i8, ptr %33, i64 4
  store i32 1, ptr %33, align 4, !tbaa !4
  store i32 131096, ptr %36, align 4
  %37 = getelementptr inbounds nuw i8, ptr %33, i64 8
  store ptr inttoptr (i64 1 to ptr), ptr %37, align 8, !tbaa !10
  %38 = getelementptr inbounds nuw i8, ptr %33, i64 16
  store ptr %3, ptr %38, align 8, !tbaa !10
  br label %58

39:                                               ; preds = %lean_obj_tag.exit
  %40 = getelementptr inbounds nuw i8, ptr %1, i64 8
  %41 = load ptr, ptr %40, align 8, !tbaa !10
  %42 = ptrtoint ptr %41 to i64
  %43 = and i64 %42, 1
  %.not = icmp eq i64 %43, 0
  br i1 %.not, label %44, label %lean_inc.exit

44:                                               ; preds = %39
  %.val.i24 = load i32, ptr %41, align 4, !tbaa !4
  %45 = icmp sgt i32 %.val.i24, 0
  br i1 %45, label %46, label %48, !prof !9

46:                                               ; preds = %44
  %47 = add nuw i32 %.val.i24, 1
  store i32 %47, ptr %41, align 4, !tbaa !4
  br label %lean_inc.exit

48:                                               ; preds = %44
  %.not.i25 = icmp eq i32 %.val.i24, 0
  br i1 %.not.i25, label %lean_inc.exit, label %49

49:                                               ; preds = %48
  tail call void @lean_inc_ref_cold(ptr noundef nonnull %41) #8
  br label %lean_inc.exit

lean_inc.exit:                                    ; preds = %49, %48, %46, %39
  br i1 %.not.i23, label %50, label %lean_dec.exit

50:                                               ; preds = %lean_inc.exit
  %51 = load i32, ptr %1, align 4, !tbaa !4
  %52 = icmp sgt i32 %51, 1
  br i1 %52, label %53, label %55, !prof !9

53:                                               ; preds = %50
  %54 = add nsw i32 %51, -1
  store i32 %54, ptr %1, align 4, !tbaa !4
  br label %lean_dec.exit

55:                                               ; preds = %50
  %.not.i21 = icmp eq i32 %51, 0
  br i1 %.not.i21, label %lean_dec.exit, label %56

56:                                               ; preds = %55
  tail call void @lean_dec_ref_cold(ptr noundef nonnull %1) #8
  br label %lean_dec.exit

lean_dec.exit:                                    ; preds = %56, %55, %53, %lean_inc.exit
  %57 = tail call ptr @lean_apply_3(ptr noundef %0, ptr noundef %41, ptr noundef %2, ptr noundef %3) #8
  br label %58

58:                                               ; preds = %lean_dec.exit, %lean_alloc_ctor.exit
  %.0 = phi ptr [ %33, %lean_alloc_ctor.exit ], [ %57, %lean_dec.exit ]
  ret ptr %.0
}